target datalayout = "e-m:e-p270:32:32-p271:32:32-p272:64:64-i64:64-i128:128-f80:128-n8:16:32:64-S128"
target triple = "x86_64-pc-linux-gnu"

%struct._packet_info = type { ptr, ptr, i32, i32, %struct.nstime_t, %struct.nstime_t, %struct.nstime_t, i8, ptr, ptr, ptr, ptr, %struct._address, %struct._address, %struct._address, %struct._address, %struct._address, %struct._address, i32, ptr, i8, [3 x i8], %struct.anon, i32, i32, i32, i32, ptr, i8, ptr, ptr, i16, i16, i32, i32, i16, i32, i32, ptr, ptr, ptr, i8, i8, i16, i16, i16, i32, i16, i16, ptr, ptr, ptr, ptr, ptr, i32, i32 }
%struct.nstime_t = type { i64, i32 }
%struct._address = type { i32, i32, ptr, ptr }
%struct.anon = type { i8, [3 x i8] }

@ett_u3v_stream_leader = internal global i32 0, align 4
@hf_u3v_stream_prefix = internal global i32 0, align 4
@hf_u3v_stream_reserved = internal global i32 0, align 4
@hf_u3v_stream_leader_size = internal global i32 0, align 4
@hf_u3v_stream_block_id = internal global i32 0, align 4
@hf_u3v_stream_payload_type = internal global i32 0, align 4
@hf_u3v_stream_timestamp = internal global i32 0, align 4
@hf_u3v_stream_pixel_format = internal global i32 0, align 4
@hf_u3v_stream_size_x = internal global i32 0, align 4
@hf_u3v_stream_size_y = internal global i32 0, align 4
@hf_u3v_stream_offset_x = internal global i32 0, align 4
@hf_u3v_stream_offset_y = internal global i32 0, align 4
@hf_u3v_stream_padding_x = internal global i32 0, align 4
@hf_u3v_stream_leader = internal global i32 0, align 4
@.str.686 = private unnamed_addr constant [42 x i8] c"Stream Leader  [ Block ID: %lu , Type %s]\00", align 1
@.str.687 = private unnamed_addr constant [21 x i8] c"Unknown Payload Type\00", align 1

; Function Attrs: null_pointer_is_valid sspstrong uwtable
define internal void @dissect_u3v_stream_leader(ptr noundef %0, ptr noundef %1, ptr noundef %2, ptr noundef %3) #0 {
  %5 = alloca ptr, align 8
  %6 = alloca ptr, align 8
  %7 = alloca ptr, align 8
  %8 = alloca ptr, align 8
  %9 = alloca i32, align 4
  %10 = alloca i32, align 4
  %11 = alloca i64, align 8
  %12 = alloca ptr, align 8
  store ptr %0, ptr %5, align 8
  store ptr %1, ptr %6, align 8
  store ptr %2, ptr %7, align 8
  store ptr %3, ptr %8, align 8
  call void @llvm.lifetime.start.p0(i64 4, ptr %9) #6
  store i32 0, ptr %9, align 4
  call void @llvm.lifetime.start.p0(i64 4, ptr %10) #6
  store i32 0, ptr %10, align 4
  call void @llvm.lifetime.start.p0(i64 8, ptr %11) #6
  store i64 0, ptr %11, align 8
  call void @llvm.lifetime.start.p0(i64 8, ptr %12) #6
  store ptr null, ptr %12, align 8
  %13 = load ptr, ptr %5, align 8
  %14 = load i32, ptr @hf_u3v_stream_leader, align 4
  %15 = load ptr, ptr %6, align 8
  %16 = call ptr @proto_tree_add_item(ptr noundef %13, i32 noundef %14, ptr noundef %15, i32 noundef 0, i32 noundef -1, i32 noundef 0)
  store ptr %16, ptr %12, align 8
  %17 = load ptr, ptr %12, align 8
  %18 = load i32, ptr @ett_u3v_stream_leader, align 4
  %19 = call ptr @proto_item_add_subtree(ptr noundef %17, i32 noundef %18)
  store ptr %19, ptr %5, align 8
  %20 = load ptr, ptr %5, align 8
  %21 = load i32, ptr @hf_u3v_stream_prefix, align 4
  %22 = load ptr, ptr %6, align 8
  %23 = load i32, ptr %9, align 4
  %24 = call ptr @proto_tree_add_item(ptr noundef %20, i32 noundef %21, ptr noundef %22, i32 noundef %23, i32 noundef 4, i32 noundef -2147483648)
  %25 = load i32, ptr %9, align 4
  %26 = add i32 %25, 4
  store i32 %26, ptr %9, align 4
  %27 = load ptr, ptr %5, align 8
  %28 = load i32, ptr @hf_u3v_stream_reserved, align 4
  %29 = load ptr, ptr %6, align 8
  %30 = load i32, ptr %9, align 4
  %31 = call ptr @proto_tree_add_item(ptr noundef %27, i32 noundef %28, ptr noundef %29, i32 noundef %30, i32 noundef 2, i32 noundef 0)
  %32 = load i32, ptr %9, align 4
  %33 = add i32 %32, 2
  store i32 %33, ptr %9, align 4
  %34 = load ptr, ptr %5, align 8
  %35 = load i32, ptr @hf_u3v_stream_leader_size, align 4
  %36 = load ptr, ptr %6, align 8
  %37 = load i32, ptr %9, align 4
  %38 = call ptr @proto_tree_add_item(ptr noundef %34, i32 noundef %35, ptr noundef %36, i32 noundef %37, i32 noundef 2, i32 noundef -2147483648)
  %39 = load i32, ptr %9, align 4
  %40 = add i32 %39, 2
  store i32 %40, ptr %9, align 4
  %41 = load ptr, ptr %6, align 8
  %42 = load i32, ptr %9, align 4
  %43 = call i64 @tvb_get_letoh64(ptr noundef %41, i32 noundef %42)
  store i64 %43, ptr %11, align 8
  %44 = load ptr, ptr %5, align 8
  %45 = load i32, ptr @hf_u3v_stream_block_id, align 4
  %46 = load ptr, ptr %6, align 8
  %47 = load i32, ptr %9, align 4
  %48 = call ptr @proto_tree_add_item(ptr noundef %44, i32 noundef %45, ptr noundef %46, i32 noundef %47, i32 noundef 8, i32 noundef -2147483648)
  %49 = load i32, ptr %9, align 4
  %50 = add i32 %49, 8
  store i32 %50, ptr %9, align 4
  %51 = load ptr, ptr %5, align 8
  %52 = load i32, ptr @hf_u3v_stream_reserved, align 4
  %53 = load ptr, ptr %6, align 8
  %54 = load i32, ptr %9, align 4
  %55 = call ptr @proto_tree_add_item(ptr noundef %51, i32 noundef %52, ptr noundef %53, i32 noundef %54, i32 noundef 2, i32 noundef 0)
  %56 = load i32, ptr %9, align 4
  %57 = add i32 %56, 2
  store i32 %57, ptr %9, align 4
  %58 = load ptr, ptr %6, align 8
  %59 = load i32, ptr %9, align 4
  %60 = call zeroext i16 @tvb_get_letohs(ptr noundef %58, i32 noundef %59)
  %61 = zext i16 %60 to i32
  store i32 %61, ptr %10, align 4
  %62 = load ptr, ptr %5, align 8
  %63 = load i32, ptr @hf_u3v_stream_payload_type, align 4
  %64 = load ptr, ptr %6, align 8
  %65 = load i32, ptr %9, align 4
  %66 = call ptr @proto_tree_add_item(ptr noundef %62, i32 noundef %63, ptr noundef %64, i32 noundef %65, i32 noundef 2, i32 noundef -2147483648)
  %67 = load i32, ptr %9, align 4
  %68 = add i32 %67, 2
  store i32 %68, ptr %9, align 4
  %69 = load ptr, ptr %7, align 8
  %70 = getelementptr inbounds nuw %struct._packet_info, ptr %69, i32 0, i32 1
  %71 = load ptr, ptr %70, align 8
  %72 = load i64, ptr %11, align 8
  %73 = load i32, ptr %10, align 4
  %74 = call ptr @val_to_str_const(i32 noundef %73, ptr noundef @payload_type_names, ptr noundef @.str.687)
  call void (ptr, i32, ptr, ...) @col_append_fstr(ptr noundef %71, i32 noundef 25, ptr noundef @.str.686, i64 noundef %72, ptr noundef %74)
  %75 = load i32, ptr %10, align 4
  %76 = icmp eq i32 %75, 1
  br i1 %76, label %83, label %77

77:                                               ; preds = %4
  %78 = load i32, ptr %10, align 4
  %79 = icmp eq i32 %78, 16385
  br i1 %79, label %83, label %80

80:                                               ; preds = %77
  %81 = load i32, ptr %10, align 4
  %82 = icmp eq i32 %81, 16384
  br i1 %82, label %83, label %91

83:                                               ; preds = %80, %77, %4
  %84 = load ptr, ptr %5, align 8
  %85 = load i32, ptr @hf_u3v_stream_timestamp, align 4
  %86 = load ptr, ptr %6, align 8
  %87 = load i32, ptr %9, align 4
  %88 = call ptr @proto_tree_add_item(ptr noundef %84, i32 noundef %85, ptr noundef %86, i32 noundef %87, i32 noundef 8, i32 noundef -2147483648)
  %89 = load i32, ptr %9, align 4
  %90 = add i32 %89, 8
  store i32 %90, ptr %9, align 4
  br label %91

91:                                               ; preds = %83, %80
  %92 = load i32, ptr %10, align 4
  %93 = icmp eq i32 %92, 1
  br i1 %93, label %97, label %94

94:                                               ; preds = %91
  %95 = load i32, ptr %10, align 4
  %96 = icmp eq i32 %95, 16385
  br i1 %96, label %97, label %143

97:                                               ; preds = %94, %91
  %98 = load ptr, ptr %5, align 8
  %99 = load i32, ptr @hf_u3v_stream_pixel_format, align 4
  %100 = load ptr, ptr %6, align 8
  %101 = load i32, ptr %9, align 4
  %102 = call ptr @proto_tree_add_item(ptr noundef %98, i32 noundef %99, ptr noundef %100, i32 noundef %101, i32 noundef 4, i32 noundef -2147483648)
  %103 = load i32, ptr %9, align 4
  %104 = add i32 %103, 4
  store i32 %104, ptr %9, align 4
  %105 = load ptr, ptr %5, align 8
  %106 = load i32, ptr @hf_u3v_stream_size_x, align 4
  %107 = load ptr, ptr %6, align 8
  %108 = load i32, ptr %9, align 4
  %109 = call ptr @proto_tree_add_item(ptr noundef %105, i32 noundef %106, ptr noundef %107, i32 noundef %108, i32 noundef 4, i32 noundef -2147483648)
  %110 = load i32, ptr %9, align 4
  %111 = add i32 %110, 4
  store i32 %111, ptr %9, align 4
  %112 = load ptr, ptr %5, align 8
  %113 = load i32, ptr @hf_u3v_stream_size_y, align 4
  %114 = load ptr, ptr %6, align 8
  %115 = load i32, ptr %9, align 4
  %116 = call ptr @proto_tree_add_item(ptr noundef %112, i32 noundef %113, ptr noundef %114, i32 noundef %115, i32 noundef 4, i32 noundef -2147483648)
  %117 = load i32, ptr %9, align 4
  %118 = add i32 %117, 4
  store i32 %118, ptr %9, align 4
  %119 = load ptr, ptr %5, align 8
  %120 = load i32, ptr @hf_u3v_stream_offset_x, align 4
  %121 = load ptr, ptr %6, align 8
  %122 = load i32, ptr %9, align 4
  %123 = call ptr @proto_tree_add_item(ptr noundef %119, i32 noundef %120, ptr noundef %121, i32 noundef %122, i32 noundef 4, i32 noundef -2147483648)
  %124 = load i32, ptr %9, align 4
  %125 = add i32 %124, 4
  store i32 %125, ptr %9, align 4
  %126 = load ptr, ptr %5, align 8
  %127 = load i32, ptr @hf_u3v_stream_offset_y, align 4
  %128 = load ptr, ptr %6, align 8
  %129 = load i32, ptr %9, align 4
  %130 = call ptr @proto_tree_add_item(ptr noundef %126, i32 noundef %127, ptr noundef %128, i32 noundef %129, i32 noundef 4, i32 noundef -2147483648)
  %131 = load i32, ptr %9, align 4
  %132 = add i32 %131, 4
  store i32 %132, ptr %9, align 4
  %133 = load ptr, ptr %5, align 8
  %134 = load i32, ptr @hf_u3v_stream_padding_x, align 4
  %135 = load ptr, ptr %6, align 8
  %136 = load i32, ptr %9, align 4
  %137 = call ptr @proto_tree_add_item(ptr noundef %133, i32 noundef %134, ptr noundef %135, i32 noundef %136, i32 noundef 2, i32 noundef -2147483648)
  %138 = load ptr, ptr %5, align 8
  %139 = load i32, ptr @hf_u3v_stream_reserved, align 4
  %140 = load ptr, ptr %6, align 8
  %141 = load i32, ptr %9, align 4
  %142 = call ptr @proto_tree_add_item(ptr noundef %138, i32 noundef %139, ptr noundef %140, i32 noundef %141, i32 noundef 2, i32 noundef 0)
  br label %143

143:                                              ; preds = %97, %94
  call void @llvm.lifetime.end.p0(i64 8, ptr %12) #6
  call void @llvm.lifetime.end.p0(i64 8, ptr %11) #6
  call void @llvm.lifetime.end.p0(i64 4, ptr %10) #6
  call void @llvm.lifetime.end.p0(i64 4, ptr %9) #6
  ret void
}