; Function Attrs: null_pointer_is_valid sspstrong uwtable
define internal fastcc void @dissect_u3v_stream_leader(ptr noundef %0, ptr noundef %1, ptr noundef readonly captures(none) %2) unnamed_addr #0 {
  %4 = load i32, ptr @hf_u3v_stream_leader, align 4
  %5 = tail call ptr @proto_tree_add_item(ptr noundef %0, i32 noundef %4, ptr noundef %1, i32 noundef 0, i32 noundef -1, i32 noundef 0)
  %6 = load i32, ptr @ett_u3v_stream_leader, align 4
  %7 = tail call ptr @proto_item_add_subtree(ptr noundef %5, i32 noundef %6)
  %8 = load i32, ptr @hf_u3v_stream_prefix, align 4
  %9 = tail call ptr @proto_tree_add_item(ptr noundef %7, i32 noundef %8, ptr noundef %1, i32 noundef 0, i32 noundef 4, i32 noundef -2147483648)
  %10 = load i32, ptr @hf_u3v_stream_reserved, align 4
  %11 = tail call ptr @proto_tree_add_item(ptr noundef %7, i32 noundef %10, ptr noundef %1, i32 noundef 4, i32 noundef 2, i32 noundef 0)
  %12 = load i32, ptr @hf_u3v_stream_leader_size, align 4
  %13 = tail call ptr @proto_tree_add_item(ptr noundef %7, i32 noundef %12, ptr noundef %1, i32 noundef 6, i32 noundef 2, i32 noundef -2147483648)
  %14 = tail call i64 @tvb_get_letoh64(ptr noundef %1, i32 noundef 8)
  %15 = load i32, ptr @hf_u3v_stream_block_id, align 4
  %16 = tail call ptr @proto_tree_add_item(ptr noundef %7, i32 noundef %15, ptr noundef %1, i32 noundef 8, i32 noundef 8, i32 noundef -2147483648)
  %17 = load i32, ptr @hf_u3v_stream_reserved, align 4
  %18 = tail call ptr @proto_tree_add_item(ptr noundef %7, i32 noundef %17, ptr noundef %1, i32 noundef 16, i32 noundef 2, i32 noundef 0)
  %19 = tail call zeroext i16 @tvb_get_letohs(ptr noundef %1, i32 noundef 18)
  %20 = zext i16 %19 to i32
  %21 = load i32, ptr @hf_u3v_stream_payload_type, align 4
  %22 = tail call ptr @proto_tree_add_item(ptr noundef %7, i32 noundef %21, ptr noundef %1, i32 noundef 18, i32 noundef 2, i32 noundef -2147483648)
  %23 = getelementptr inbounds nuw i8, ptr %2, i64 8
  %24 = load ptr, ptr %23, align 8
  %25 = tail call ptr @val_to_str_const(i32 noundef %20, ptr noundef nonnull @payload_type_names, ptr noundef nonnull @.str.687)
  tail call void (ptr, i32, ptr, ...) @col_append_fstr(ptr noundef %24, i32 noundef 25, ptr noundef nonnull @.str.686, i64 noundef %14, ptr noundef %25)
  %26 = and i16 %19, -16385
  %or.cond = icmp eq i16 %26, 1
  switch i16 %19, label %30 [
    i16 16385, label %27
    i16 16384, label %27
    i16 1, label %27
  ]

27:                                               ; preds = %3, %3, %3
  %28 = load i32, ptr @hf_u3v_stream_timestamp, align 4
  %29 = tail call ptr @proto_tree_add_item(ptr noundef %7, i32 noundef %28, ptr noundef %1, i32 noundef 20, i32 noundef 8, i32 noundef -2147483648)
  br label %30

30:                                               ; preds = %3, %27
  %.0 = phi i32 [ 28, %27 ], [ 20, %3 ]
  br i1 %or.cond, label %31, label %51

31:                                               ; preds = %30
  %32 = load i32, ptr @hf_u3v_stream_pixel_format, align 4
  %33 = tail call ptr @proto_tree_add_item(ptr noundef %7, i32 noundef %32, ptr noundef %1, i32 noundef %.0, i32 noundef 4, i32 noundef -2147483648)
  %34 = add nuw nsw i32 %.0, 4
  %35 = load i32, ptr @hf_u3v_stream_size_x, align 4
  %36 = tail call ptr @proto_tree_add_item(ptr noundef %7, i32 noundef %35, ptr noundef %1, i32 noundef %34, i32 noundef 4, i32 noundef -2147483648)
  %37 = add nuw nsw i32 %.0, 8
  %38 = load i32, ptr @hf_u3v_stream_size_y, align 4
  %39 = tail call ptr @proto_tree_add_item(ptr noundef %7, i32 noundef %38, ptr noundef %1, i32 noundef %37, i32 noundef 4, i32 noundef -2147483648)
  %40 = add nuw nsw i32 %.0, 12
  %41 = load i32, ptr @hf_u3v_stream_offset_x, align 4
  %42 = tail call ptr @proto_tree_add_item(ptr noundef %7, i32 noundef %41, ptr noundef %1, i32 noundef %40, i32 noundef 4, i32 noundef -2147483648)
  %43 = add nuw nsw i32 %.0, 16
  %44 = load i32, ptr @hf_u3v_stream_offset_y, align 4
  %45 = tail call ptr @proto_tree_add_item(ptr noundef %7, i32 noundef %44, ptr noundef %1, i32 noundef %43, i32 noundef 4, i32 noundef -2147483648)
  %46 = add nuw nsw i32 %.0, 20
  %47 = load i32, ptr @hf_u3v_stream_padding_x, align 4
  %48 = tail call ptr @proto_tree_add_item(ptr noundef %7, i32 noundef %47, ptr noundef %1, i32 noundef %46, i32 noundef 2, i32 noundef -2147483648)
  %49 = load i32, ptr @hf_u3v_stream_reserved, align 4
  %50 = tail call ptr @proto_tree_add_item(ptr noundef %7, i32 noundef %49, ptr noundef %1, i32 noundef %46, i32 noundef 2, i32 noundef 0)
  br label %51

51:                                               ; preds = %30, %31
  ret void
}